target datalayout = "e-m:e-p270:32:32-p271:32:32-p272:64:64-i64:64-i128:128-f80:128-n8:16:32:64-S128"
target triple = "x86_64-unknown-linux-gnu"

%"class.hermes::Value" = type { i8, %"class.hermes::Type", %"class.llvh::SmallVector" }
%"class.hermes::Type" = type { i16, i16 }
%"class.llvh::SmallVector" = type { %"class.llvh::SmallVectorImpl", %"struct.llvh::SmallVectorStorage" }
%"class.llvh::SmallVectorImpl" = type { %"class.llvh::SmallVectorTemplateBase" }
%"class.llvh::SmallVectorTemplateBase" = type { %"class.llvh::SmallVectorTemplateCommon" }
%"class.llvh::SmallVectorTemplateCommon" = type { %"class.llvh::SmallVectorBase" }
%"class.llvh::SmallVectorBase" = type { ptr, i32, i32 }
%"struct.llvh::SmallVectorStorage" = type { [2 x %"struct.llvh::AlignedCharArrayUnion"] }
%"struct.llvh::AlignedCharArrayUnion" = type { %"struct.llvh::AlignedCharArray" }
%"struct.llvh::AlignedCharArray" = type { [8 x i8] }
%"struct.__gnu_cxx::__ops::_Iter_equals_val" = type { ptr }

; Function Attrs: mustprogress nounwind uwtable
define linkonce_odr hidden noundef zeroext i1 @_ZN9__gnu_cxx5__ops16_Iter_equals_valIKPN6hermes5ValueEEclIPPNS2_11InstructionEEEbT_(ptr noundef nonnull align 8 dereferenceable(8) %this, ptr noundef %__it) #0 comdat align 2 {
entry:
  %this.addr = alloca ptr, align 8
  %__it.addr = alloca ptr, align 8
  store ptr %this, ptr %this.addr, align 8
  store ptr %__it, ptr %__it.addr, align 8
  %this1 = load ptr, ptr %this.addr, align 8
  %0 = load ptr, ptr %__it.addr, align 8
  %1 = load ptr, ptr %0, align 8
  %2 = icmp eq ptr %1, null
  br i1 %2, label %cast.end, label %cast.notnull

cast.notnull:                                     ; preds = %entry
  %add.ptr = getelementptr inbounds i8, ptr %1, i64 16
  br label %cast.end

cast.end:                                         ; preds = %cast.notnull, %entry
  %cast.result = phi ptr [ %add.ptr, %cast.notnull ], [ null, %entry ]
  %_M_value = getelementptr inbounds %"struct.__gnu_cxx::__ops::_Iter_equals_val", ptr %this1, i32 0, i32 0
  %3 = load ptr, ptr %_M_value, align 8
  %4 = load ptr, ptr %3, align 8
  %cmp = icmp eq ptr %cast.result, %4
  ret i1 %cmp
}

; Function Attrs: mustprogress nounwind uwtable
define linkonce_odr hidden noundef ptr @_ZSt9__find_ifIPPN6hermes11InstructionEN9__gnu_cxx5__ops16_Iter_equals_valIKPNS0_5ValueEEEET_SB_SB_T0_St26random_access_iterator_tag(ptr noundef %__first, ptr noundef %__last, ptr %__pred.coerce) #0 comdat {
entry:
  %retval = alloca ptr, align 8
  %__pred = alloca %"struct.__gnu_cxx::__ops::_Iter_equals_val", align 8
  %__first.addr = alloca ptr, align 8
  %__last.addr = alloca ptr, align 8
  %__trip_count = alloca i64, align 8
  %coerce.dive = getelementptr inbounds %"struct.__gnu_cxx::__ops::_Iter_equals_val", ptr %__pred, i32 0, i32 0
  store ptr %__pred.coerce, ptr %coerce.dive, align 8
  store ptr %__first, ptr %__first.addr, align 8
  store ptr %__last, ptr %__last.addr, align 8
  %0 = load ptr, ptr %__last.addr, align 8
  %1 = load ptr, ptr %__first.addr, align 8
  %sub.ptr.lhs.cast = ptrtoint ptr %0 to i64
  %sub.ptr.rhs.cast = ptrtoint ptr %1 to i64
  %sub.ptr.sub = sub i64 %sub.ptr.lhs.cast, %sub.ptr.rhs.cast
  %sub.ptr.div = sdiv exact i64 %sub.ptr.sub, 8
  %shr = ashr i64 %sub.ptr.div, 2
  store i64 %shr, ptr %__trip_count, align 8
  br label %for.cond

for.cond:                                         ; preds = %for.inc, %entry
  %2 = load i64, ptr %__trip_count, align 8
  %cmp = icmp sgt i64 %2, 0
  br i1 %cmp, label %for.body, label %for.end

for.body:                                         ; preds = %for.cond
  %3 = load ptr, ptr %__first.addr, align 8
  %call = call noundef zeroext i1 @_ZN9__gnu_cxx5__ops16_Iter_equals_valIKPN6hermes5ValueEEclIPPNS2_11InstructionEEEbT_(ptr noundef nonnull align 8 dereferenceable(8) %__pred, ptr noundef %3)
  br i1 %call, label %if.then, label %if.end

if.then:                                          ; preds = %for.body
  %4 = load ptr, ptr %__first.addr, align 8
  store ptr %4, ptr %retval, align 8
  br label %return

if.end:                                           ; preds = %for.body
  %5 = load ptr, ptr %__first.addr, align 8
  %incdec.ptr = getelementptr inbounds ptr, ptr %5, i32 1
  store ptr %incdec.ptr, ptr %__first.addr, align 8
  %6 = load ptr, ptr %__first.addr, align 8
  %call1 = call noundef zeroext i1 @_ZN9__gnu_cxx5__ops16_Iter_equals_valIKPN6hermes5ValueEEclIPPNS2_11InstructionEEEbT_(ptr noundef nonnull align 8 dereferenceable(8) %__pred, ptr noundef %6)
  br i1 %call1, label %if.then2, label %if.end3

if.then2:                                         ; preds = %if.end
  %7 = load ptr, ptr %__first.addr, align 8
  store ptr %7, ptr %retval, align 8
  br label %return

if.end3:                                          ; preds = %if.end
  %8 = load ptr, ptr %__first.addr, align 8
  %incdec.ptr4 = getelementptr inbounds ptr, ptr %8, i32 1
  store ptr %incdec.ptr4, ptr %__first.addr, align 8
  %9 = load ptr, ptr %__first.addr, align 8
  %call5 = call noundef zeroext i1 @_ZN9__gnu_cxx5__ops16_Iter_equals_valIKPN6hermes5ValueEEclIPPNS2_11InstructionEEEbT_(ptr noundef nonnull align 8 dereferenceable(8) %__pred, ptr noundef %9)
  br i1 %call5, label %if.then6, label %if.end7

if.then6:                                         ; preds = %if.end3
  %10 = load ptr, ptr %__first.addr, align 8
  store ptr %10, ptr %retval, align 8
  br label %return

if.end7:                                          ; preds = %if.end3
  %11 = load ptr, ptr %__first.addr, align 8
  %incdec.ptr8 = getelementptr inbounds ptr, ptr %11, i32 1
  store ptr %incdec.ptr8, ptr %__first.addr, align 8
  %12 = load ptr, ptr %__first.addr, align 8
  %call9 = call noundef zeroext i1 @_ZN9__gnu_cxx5__ops16_Iter_equals_valIKPN6hermes5ValueEEclIPPNS2_11InstructionEEEbT_(ptr noundef nonnull align 8 dereferenceable(8) %__pred, ptr noundef %12)
  br i1 %call9, label %if.then10, label %if.end11

if.then10:                                        ; preds = %if.end7
  %13 = load ptr, ptr %__first.addr, align 8
  store ptr %13, ptr %retval, align 8
  br label %return

if.end11:                                         ; preds = %if.end7
  %14 = load ptr, ptr %__first.addr, align 8
  %incdec.ptr12 = getelementptr inbounds ptr, ptr %14, i32 1
  store ptr %incdec.ptr12, ptr %__first.addr, align 8
  br label %for.inc

for.inc:                                          ; preds = %if.end11
  %15 = load i64, ptr %__trip_count, align 8
  %dec = add nsw i64 %15, -1
  store i64 %dec, ptr %__trip_count, align 8
  br label %for.cond, !llvm.loop !40

for.end:                                          ; preds = %for.cond
  %16 = load ptr, ptr %__last.addr, align 8
  %17 = load ptr, ptr %__first.addr, align 8
  %sub.ptr.lhs.cast13 = ptrtoint ptr %16 to i64
  %sub.ptr.rhs.cast14 = ptrtoint ptr %17 to i64
  %sub.ptr.sub15 = sub i64 %sub.ptr.lhs.cast13, %sub.ptr.rhs.cast14
  %sub.ptr.div16 = sdiv exact i64 %sub.ptr.sub15, 8
  switch i64 %sub.ptr.div16, label %sw.default [
    i64 3, label %sw.bb
    i64 2, label %sw.bb21
    i64 1, label %sw.bb26
    i64 0, label %sw.bb31
  ]

sw.bb:                                            ; preds = %for.end
  %18 = load ptr, ptr %__first.addr, align 8
  %call17 = call noundef zeroext i1 @_ZN9__gnu_cxx5__ops16_Iter_equals_valIKPN6hermes5ValueEEclIPPNS2_11InstructionEEEbT_(ptr noundef nonnull align 8 dereferenceable(8) %__pred, ptr noundef %18)
  br i1 %call17, label %if.then18, label %if.end19

if.then18:                                        ; preds = %sw.bb
  %19 = load ptr, ptr %__first.addr, align 8
  store ptr %19, ptr %retval, align 8
  br label %return

if.end19:                                         ; preds = %sw.bb
  %20 = load ptr, ptr %__first.addr, align 8
  %incdec.ptr20 = getelementptr inbounds ptr, ptr %20, i32 1
  store ptr %incdec.ptr20, ptr %__first.addr, align 8
  br label %sw.bb21

sw.bb21:                                          ; preds = %if.end19, %for.end
  %21 = load ptr, ptr %__first.addr, align 8
  %call22 = call noundef zeroext i1 @_ZN9__gnu_cxx5__ops16_Iter_equals_valIKPN6hermes5ValueEEclIPPNS2_11InstructionEEEbT_(ptr noundef nonnull align 8 dereferenceable(8) %__pred, ptr noundef %21)
  br i1 %call22, label %if.then23, label %if.end24

if.then23:                                        ; preds = %sw.bb21
  %22 = load ptr, ptr %__first.addr, align 8
  store ptr %22, ptr %retval, align 8
  br label %return

if.end24:                                         ; preds = %sw.bb21
  %23 = load ptr, ptr %__first.addr, align 8
  %incdec.ptr25 = getelementptr inbounds ptr, ptr %23, i32 1
  store ptr %incdec.ptr25, ptr %__first.addr, align 8
  br label %sw.bb26

sw.bb26:                                          ; preds = %if.end24, %for.end
  %24 = load ptr, ptr %__first.addr, align 8
  %call27 = call noundef zeroext i1 @_ZN9__gnu_cxx5__ops16_Iter_equals_valIKPN6hermes5ValueEEclIPPNS2_11InstructionEEEbT_(ptr noundef nonnull align 8 dereferenceable(8) %__pred, ptr noundef %24)
  br i1 %call27, label %if.then28, label %if.end29

if.then28:                                        ; preds = %sw.bb26
  %25 = load ptr, ptr %__first.addr, align 8
  store ptr %25, ptr %retval, align 8
  br label %return

if.end29:                                         ; preds = %sw.bb26
  %26 = load ptr, ptr %__first.addr, align 8
  %incdec.ptr30 = getelementptr inbounds ptr, ptr %26, i32 1
  store ptr %incdec.ptr30, ptr %__first.addr, align 8
  br label %sw.bb31

sw.bb31:                                          ; preds = %if.end29, %for.end
  br label %sw.default

sw.default:                                       ; preds = %sw.bb31, %for.end
  %27 = load ptr, ptr %__last.addr, align 8
  store ptr %27, ptr %retval, align 8
  br label %return

return:                                           ; preds = %sw.default, %if.then28, %if.then23, %if.then18, %if.then10, %if.then6, %if.then2, %if.then
  %28 = load ptr, ptr %retval, align 8
  ret ptr %28
}

; Function Attrs: mustprogress nounwind uwtable
define linkonce_odr hidden void @_ZSt19__iterator_categoryIPPN6hermes11InstructionEENSt15iterator_traitsIT_E17iterator_categoryERKS5_(ptr noundef nonnull align 8 dereferenceable(8) %0) #0 comdat {
entry:
  %.addr = alloca ptr, align 8
  store ptr %0, ptr %.addr, align 8
  ret void
}

; Function Attrs: mustprogress nounwind uwtable
define linkonce_odr hidden void @_ZN9__gnu_cxx5__ops16_Iter_equals_valIKPN6hermes5ValueEEC2ERS5_(ptr noundef nonnull align 8 dereferenceable(8) %this, ptr noundef nonnull align 8 dereferenceable(8) %__value) unnamed_addr #0 comdat align 2 {
entry:
  %this.addr = alloca ptr, align 8
  %__value.addr = alloca ptr, align 8
  store ptr %this, ptr %this.addr, align 8
  store ptr %__value, ptr %__value.addr, align 8
  %this1 = load ptr, ptr %this.addr, align 8
  %_M_value = getelementptr inbounds %"struct.__gnu_cxx::__ops::_Iter_equals_val", ptr %this1, i32 0, i32 0
  %0 = load ptr, ptr %__value.addr, align 8
  store ptr %0, ptr %_M_value, align 8
  ret void
}

; Function Attrs: mustprogress nounwind uwtable
define linkonce_odr hidden noundef ptr @_ZSt9__find_ifIPPN6hermes11InstructionEN9__gnu_cxx5__ops16_Iter_equals_valIKPNS0_5ValueEEEET_SB_SB_T0_(ptr noundef %__first, ptr noundef %__last, ptr %__pred.coerce) #0 comdat {
entry:
  %__pred = alloca %"struct.__gnu_cxx::__ops::_Iter_equals_val", align 8
  %__first.addr = alloca ptr, align 8
  %__last.addr = alloca ptr, align 8
  %agg.tmp = alloca %"struct.__gnu_cxx::__ops::_Iter_equals_val", align 8
  %coerce.dive = getelementptr inbounds %"struct.__gnu_cxx::__ops::_Iter_equals_val", ptr %__pred, i32 0, i32 0
  store ptr %__pred.coerce, ptr %coerce.dive, align 8
  store ptr %__first, ptr %__first.addr, align 8
  store ptr %__last, ptr %__last.addr, align 8
  %0 = load ptr, ptr %__first.addr, align 8
  %1 = load ptr, ptr %__last.addr, align 8
  call void @llvm.memcpy.p0.p0.i64(ptr align 8 %agg.tmp, ptr align 8 %__pred, i64 8, i1 false)
  call void @_ZSt19__iterator_categoryIPPN6hermes11InstructionEENSt15iterator_traitsIT_E17iterator_categoryERKS5_(ptr noundef nonnull align 8 dereferenceable(8) %__first.addr)
  %coerce.dive2 = getelementptr inbounds %"struct.__gnu_cxx::__ops::_Iter_equals_val", ptr %agg.tmp, i32 0, i32 0
  %2 = load ptr, ptr %coerce.dive2, align 8
  %call = call noundef ptr @_ZSt9__find_ifIPPN6hermes11InstructionEN9__gnu_cxx5__ops16_Iter_equals_valIKPNS0_5ValueEEEET_SB_SB_T0_St26random_access_iterator_tag(ptr noundef %0, ptr noundef %1, ptr %2)
  ret ptr %call
}

; Function Attrs: mustprogress nounwind uwtable
define linkonce_odr hidden ptr @_ZN9__gnu_cxx5__ops17__iter_equals_valIKPN6hermes5ValueEEENS0_16_Iter_equals_valIT_EERS7_(ptr noundef nonnull align 8 dereferenceable(8) %__val) #0 comdat {
entry:
  %retval = alloca %"struct.__gnu_cxx::__ops::_Iter_equals_val", align 8
  %__val.addr = alloca ptr, align 8
  store ptr %__val, ptr %__val.addr, align 8
  %0 = load ptr, ptr %__val.addr, align 8
  call void @_ZN9__gnu_cxx5__ops16_Iter_equals_valIKPN6hermes5ValueEEC2ERS5_(ptr noundef nonnull align 8 dereferenceable(8) %retval, ptr noundef nonnull align 8 dereferenceable(8) %0)
  %coerce.dive = getelementptr inbounds %"struct.__gnu_cxx::__ops::_Iter_equals_val", ptr %retval, i32 0, i32 0
  %1 = load ptr, ptr %coerce.dive, align 8
  ret ptr %1
}

; Function Attrs: mustprogress nounwind uwtable
define linkonce_odr hidden noundef ptr @_ZSt4findIPPN6hermes11InstructionEPNS0_5ValueEET_S6_S6_RKT0_(ptr noundef %__first, ptr noundef %__last, ptr noundef nonnull align 8 dereferenceable(8) %__val) #0 comdat {
entry:
  %__first.addr = alloca ptr, align 8
  %__last.addr = alloca ptr, align 8
  %__val.addr = alloca ptr, align 8
  %agg.tmp = alloca %"struct.__gnu_cxx::__ops::_Iter_equals_val", align 8
  store ptr %__first, ptr %__first.addr, align 8
  store ptr %__last, ptr %__last.addr, align 8
  store ptr %__val, ptr %__val.addr, align 8
  %0 = load ptr, ptr %__first.addr, align 8
  %1 = load ptr, ptr %__last.addr, align 8
  %2 = load ptr, ptr %__val.addr, align 8
  %call = call ptr @_ZN9__gnu_cxx5__ops17__iter_equals_valIKPN6hermes5ValueEEENS0_16_Iter_equals_valIT_EERS7_(ptr noundef nonnull align 8 dereferenceable(8) %2)
  %coerce.dive = getelementptr inbounds %"struct.__gnu_cxx::__ops::_Iter_equals_val", ptr %agg.tmp, i32 0, i32 0
  store ptr %call, ptr %coerce.dive, align 8
  %coerce.dive1 = getelementptr inbounds %"struct.__gnu_cxx::__ops::_Iter_equals_val", ptr %agg.tmp, i32 0, i32 0
  %3 = load ptr, ptr %coerce.dive1, align 8
  %call2 = call noundef ptr @_ZSt9__find_ifIPPN6hermes11InstructionEN9__gnu_cxx5__ops16_Iter_equals_valIKPNS0_5ValueEEEET_SB_SB_T0_(ptr noundef %0, ptr noundef %1, ptr %3)
  ret ptr %call2
}

; Function Attrs: mustprogress nounwind uwtable
define linkonce_odr hidden noundef i64 @_ZNK4llvh15SmallVectorBase4sizeEv(ptr noundef nonnull align 8 dereferenceable(16) %this) #0 comdat align 2 {
entry:
  %this.addr = alloca ptr, align 8
  store ptr %this, ptr %this.addr, align 8
  %this1 = load ptr, ptr %this.addr, align 8
  %Size = getelementptr inbounds %"class.llvh::SmallVectorBase", ptr %this1, i32 0, i32 1
  %0 = load i32, ptr %Size, align 8
  %conv = zext i32 %0 to i64
  ret i64 %conv
}

; Function Attrs: mustprogress nounwind uwtable
define hidden noundef zeroext i1 @_ZN6hermes5Value7hasUserEPS0_(ptr noundef nonnull align 8 dereferenceable(40) %this, ptr noundef %other) #0 align 2 {
entry:
  %this.addr.i.i9 = alloca ptr, align 8
  %this.addr.i10 = alloca ptr, align 8
  %this.addr.i.i = alloca ptr, align 8
  %this.addr.i7 = alloca ptr, align 8
  %this.addr.i = alloca ptr, align 8
  %this.addr = alloca ptr, align 8
  %other.addr = alloca ptr, align 8
  store ptr %this, ptr %this.addr, align 8
  store ptr %other, ptr %other.addr, align 8
  %this1 = load ptr, ptr %this.addr, align 8
  %Users = getelementptr inbounds %"class.hermes::Value", ptr %this1, i32 0, i32 2
  store ptr %Users, ptr %this.addr.i, align 8
  %this1.i = load ptr, ptr %this.addr.i, align 8
  %0 = load ptr, ptr %this1.i, align 8
  %Users2 = getelementptr inbounds %"class.hermes::Value", ptr %this1, i32 0, i32 2
  store ptr %Users2, ptr %this.addr.i10, align 8
  %this1.i11 = load ptr, ptr %this.addr.i10, align 8
  store ptr %this1.i11, ptr %this.addr.i.i9, align 8
  %this1.i.i12 = load ptr, ptr %this.addr.i.i9, align 8
  %1 = load ptr, ptr %this1.i.i12, align 8
  %call2.i13 = call noundef i64 @_ZNK4llvh15SmallVectorBase4sizeEv(ptr noundef nonnull align 8 dereferenceable(16) %this1.i11)
  %add.ptr.i14 = getelementptr inbounds ptr, ptr %1, i64 %call2.i13
  %call4 = call noundef ptr @_ZSt4findIPPN6hermes11InstructionEPNS0_5ValueEET_S6_S6_RKT0_(ptr noundef %0, ptr noundef %add.ptr.i14, ptr noundef nonnull align 8 dereferenceable(8) %other.addr)
  %Users5 = getelementptr inbounds %"class.hermes::Value", ptr %this1, i32 0, i32 2
  store ptr %Users5, ptr %this.addr.i7, align 8
  %this1.i8 = load ptr, ptr %this.addr.i7, align 8
  store ptr %this1.i8, ptr %this.addr.i.i, align 8
  %this1.i.i = load ptr, ptr %this.addr.i.i, align 8
  %2 = load ptr, ptr %this1.i.i, align 8
  %call2.i = call noundef i64 @_ZNK4llvh15SmallVectorBase4sizeEv(ptr noundef nonnull align 8 dereferenceable(16) %this1.i8)
  %add.ptr.i = getelementptr inbounds ptr, ptr %2, i64 %call2.i
  %cmp = icmp ne ptr %call4, %add.ptr.i
  ret i1 %cmp
}