; Function Attrs: mustprogress nofree norecurse nosync nounwind willreturn memory(read, inaccessiblemem: none) uwtable
define hidden noundef zeroext i1 @_ZN6hermes5Value7hasUserEPS0_(ptr nocapture noundef nonnull readonly align 8 dereferenceable(40) %this, ptr noundef readnone %other) local_unnamed_addr #4 align 2 {
entry:
  %Users = getelementptr inbounds i8, ptr %this, i64 8
  %0 = load ptr, ptr %Users, align 8
  %Size.i = getelementptr inbounds i8, ptr %this, i64 16
  %1 = load i32, ptr %Size.i, align 8
  %conv.i = zext i32 %1 to i64
  %add.ptr.i14 = getelementptr inbounds ptr, ptr %0, i64 %conv.i
  %sub.ptr.lhs.cast.i.i.i = ptrtoint ptr %add.ptr.i14 to i64
  %cmp60.i.i.i.not = icmp ult i32 %1, 4
  br i1 %cmp60.i.i.i.not, label %for.end.i.i.i, label %for.body.lr.ph.i.i.i

for.body.lr.ph.i.i.i:                             ; preds = %entry
  %add.ptr.i14.idx = shl nuw nsw i64 %conv.i, 3
  %shr.i.i.i = lshr i64 %conv.i, 2
  %2 = and i64 %add.ptr.i14.idx, 34359738336
  %scevgep.i.i.i = getelementptr i8, ptr %0, i64 %2
  br label %for.body.i.i.i

for.body.i.i.i:                                   ; preds = %if.end11.i.i.i, %for.body.lr.ph.i.i.i
  %__trip_count.062.i.i.i = phi i64 [ %shr.i.i.i, %for.body.lr.ph.i.i.i ], [ %dec.i.i.i, %if.end11.i.i.i ]
  %__first.addr.061.i.i.i = phi ptr [ %0, %for.body.lr.ph.i.i.i ], [ %incdec.ptr12.i.i.i, %if.end11.i.i.i ]
  %3 = load ptr, ptr %__first.addr.061.i.i.i, align 8
  %4 = icmp eq ptr %3, null
  %add.ptr.i.i.i.i = getelementptr inbounds i8, ptr %3, i64 16
  %spec.select.i.i.i.i = select i1 %4, ptr null, ptr %add.ptr.i.i.i.i
  %cmp.i.i.i.i = icmp eq ptr %spec.select.i.i.i.i, %other
  br i1 %cmp.i.i.i.i, label %_ZSt4findIPPN6hermes11InstructionEPNS0_5ValueEET_S6_S6_RKT0_.exit, label %if.end.i.i.i

if.end.i.i.i:                                     ; preds = %for.body.i.i.i
  %incdec.ptr.i.i.i = getelementptr inbounds i8, ptr %__first.addr.061.i.i.i, i64 8
  %5 = load ptr, ptr %incdec.ptr.i.i.i, align 8
  %6 = icmp eq ptr %5, null
  %add.ptr.i26.i.i.i = getelementptr inbounds i8, ptr %5, i64 16
  %spec.select.i27.i.i.i = select i1 %6, ptr null, ptr %add.ptr.i26.i.i.i
  %cmp.i28.i.i.i = icmp eq ptr %spec.select.i27.i.i.i, %other
  br i1 %cmp.i28.i.i.i, label %_ZSt4findIPPN6hermes11InstructionEPNS0_5ValueEET_S6_S6_RKT0_.exit.loopexit.split.loop.exit, label %if.end3.i.i.i

if.end3.i.i.i:                                    ; preds = %if.end.i.i.i
  %incdec.ptr4.i.i.i = getelementptr inbounds i8, ptr %__first.addr.061.i.i.i, i64 16
  %7 = load ptr, ptr %incdec.ptr4.i.i.i, align 8
  %8 = icmp eq ptr %7, null
  %add.ptr.i29.i.i.i = getelementptr inbounds i8, ptr %7, i64 16
  %spec.select.i30.i.i.i = select i1 %8, ptr null, ptr %add.ptr.i29.i.i.i
  %cmp.i31.i.i.i = icmp eq ptr %spec.select.i30.i.i.i, %other
  br i1 %cmp.i31.i.i.i, label %_ZSt4findIPPN6hermes11InstructionEPNS0_5ValueEET_S6_S6_RKT0_.exit.loopexit.split.loop.exit16, label %if.end7.i.i.i

if.end7.i.i.i:                                    ; preds = %if.end3.i.i.i
  %incdec.ptr8.i.i.i = getelementptr inbounds i8, ptr %__first.addr.061.i.i.i, i64 24
  %9 = load ptr, ptr %incdec.ptr8.i.i.i, align 8
  %10 = icmp eq ptr %9, null
  %add.ptr.i32.i.i.i = getelementptr inbounds i8, ptr %9, i64 16
  %spec.select.i33.i.i.i = select i1 %10, ptr null, ptr %add.ptr.i32.i.i.i
  %cmp.i34.i.i.i = icmp eq ptr %spec.select.i33.i.i.i, %other
  br i1 %cmp.i34.i.i.i, label %_ZSt4findIPPN6hermes11InstructionEPNS0_5ValueEET_S6_S6_RKT0_.exit.loopexit.split.loop.exit18, label %if.end11.i.i.i

if.end11.i.i.i:                                   ; preds = %if.end7.i.i.i
  %incdec.ptr12.i.i.i = getelementptr inbounds i8, ptr %__first.addr.061.i.i.i, i64 32
  %dec.i.i.i = add nsw i64 %__trip_count.062.i.i.i, -1
  %cmp.i.i.i = icmp sgt i64 %__trip_count.062.i.i.i, 1
  br i1 %cmp.i.i.i, label %for.body.i.i.i, label %for.end.loopexit.i.i.i, !llvm.loop !12

for.end.loopexit.i.i.i:                           ; preds = %if.end11.i.i.i
  %.pre68.i.i.i = ptrtoint ptr %scevgep.i.i.i to i64
  %.pre69.i.i.i = sub i64 %sub.ptr.lhs.cast.i.i.i, %.pre68.i.i.i
  %11 = ashr exact i64 %.pre69.i.i.i, 3
  br label %for.end.i.i.i

for.end.i.i.i:                                    ; preds = %for.end.loopexit.i.i.i, %entry
  %sub.ptr.sub15.pre-phi.i.i.i = phi i64 [ %11, %for.end.loopexit.i.i.i ], [ %conv.i, %entry ]
  %__first.addr.0.lcssa.i.i.i = phi ptr [ %scevgep.i.i.i, %for.end.loopexit.i.i.i ], [ %0, %entry ]
  switch i64 %sub.ptr.sub15.pre-phi.i.i.i, label %sw.default.i.i.i [
    i64 3, label %sw.bb.i.i.i
    i64 2, label %sw.bb21.i.i.i
    i64 1, label %sw.bb26.i.i.i
  ]

sw.bb.i.i.i:                                      ; preds = %for.end.i.i.i
  %12 = load ptr, ptr %__first.addr.0.lcssa.i.i.i, align 8
  %13 = icmp eq ptr %12, null
  %add.ptr.i35.i.i.i = getelementptr inbounds i8, ptr %12, i64 16
  %spec.select.i36.i.i.i = select i1 %13, ptr null, ptr %add.ptr.i35.i.i.i
  %cmp.i37.i.i.i = icmp eq ptr %spec.select.i36.i.i.i, %other
  br i1 %cmp.i37.i.i.i, label %_ZSt4findIPPN6hermes11InstructionEPNS0_5ValueEET_S6_S6_RKT0_.exit, label %if.end19.i.i.i

if.end19.i.i.i:                                   ; preds = %sw.bb.i.i.i
  %incdec.ptr20.i.i.i = getelementptr inbounds i8, ptr %__first.addr.0.lcssa.i.i.i, i64 8
  br label %sw.bb21.i.i.i

sw.bb21.i.i.i:                                    ; preds = %for.end.i.i.i, %if.end19.i.i.i
  %__first.addr.1.i.i.i = phi ptr [ %incdec.ptr20.i.i.i, %if.end19.i.i.i ], [ %__first.addr.0.lcssa.i.i.i, %for.end.i.i.i ]
  %14 = load ptr, ptr %__first.addr.1.i.i.i, align 8
  %15 = icmp eq ptr %14, null
  %add.ptr.i38.i.i.i = getelementptr inbounds i8, ptr %14, i64 16
  %spec.select.i39.i.i.i = select i1 %15, ptr null, ptr %add.ptr.i38.i.i.i
  %cmp.i40.i.i.i = icmp eq ptr %spec.select.i39.i.i.i, %other
  br i1 %cmp.i40.i.i.i, label %_ZSt4findIPPN6hermes11InstructionEPNS0_5ValueEET_S6_S6_RKT0_.exit, label %if.end24.i.i.i

if.end24.i.i.i:                                   ; preds = %sw.bb21.i.i.i
  %incdec.ptr25.i.i.i = getelementptr inbounds i8, ptr %__first.addr.1.i.i.i, i64 8
  br label %sw.bb26.i.i.i

sw.bb26.i.i.i:                                    ; preds = %for.end.i.i.i, %if.end24.i.i.i
  %__first.addr.2.i.i.i = phi ptr [ %incdec.ptr25.i.i.i, %if.end24.i.i.i ], [ %__first.addr.0.lcssa.i.i.i, %for.end.i.i.i ]
  %16 = load ptr, ptr %__first.addr.2.i.i.i, align 8
  %17 = icmp eq ptr %16, null
  %add.ptr.i41.i.i.i = getelementptr inbounds i8, ptr %16, i64 16
  %spec.select.i42.i.i.i = select i1 %17, ptr null, ptr %add.ptr.i41.i.i.i
  %cmp.i43.i.i.i = icmp eq ptr %spec.select.i42.i.i.i, %other
  br i1 %cmp.i43.i.i.i, label %_ZSt4findIPPN6hermes11InstructionEPNS0_5ValueEET_S6_S6_RKT0_.exit, label %sw.default.i.i.i

sw.default.i.i.i:                                 ; preds = %sw.bb26.i.i.i, %for.end.i.i.i
  br label %_ZSt4findIPPN6hermes11InstructionEPNS0_5ValueEET_S6_S6_RKT0_.exit

_ZSt4findIPPN6hermes11InstructionEPNS0_5ValueEET_S6_S6_RKT0_.exit.loopexit.split.loop.exit: ; preds = %if.end.i.i.i
  %incdec.ptr.i.i.i.le = getelementptr inbounds i8, ptr %__first.addr.061.i.i.i, i64 8
  br label %_ZSt4findIPPN6hermes11InstructionEPNS0_5ValueEET_S6_S6_RKT0_.exit

_ZSt4findIPPN6hermes11InstructionEPNS0_5ValueEET_S6_S6_RKT0_.exit.loopexit.split.loop.exit16: ; preds = %if.end3.i.i.i
  %incdec.ptr4.i.i.i.le = getelementptr inbounds i8, ptr %__first.addr.061.i.i.i, i64 16
  br label %_ZSt4findIPPN6hermes11InstructionEPNS0_5ValueEET_S6_S6_RKT0_.exit

_ZSt4findIPPN6hermes11InstructionEPNS0_5ValueEET_S6_S6_RKT0_.exit.loopexit.split.loop.exit18: ; preds = %if.end7.i.i.i
  %incdec.ptr8.i.i.i.le = getelementptr inbounds i8, ptr %__first.addr.061.i.i.i, i64 24
  br label %_ZSt4findIPPN6hermes11InstructionEPNS0_5ValueEET_S6_S6_RKT0_.exit

_ZSt4findIPPN6hermes11InstructionEPNS0_5ValueEET_S6_S6_RKT0_.exit: ; preds = %for.body.i.i.i, %_ZSt4findIPPN6hermes11InstructionEPNS0_5ValueEET_S6_S6_RKT0_.exit.loopexit.split.loop.exit, %_ZSt4findIPPN6hermes11InstructionEPNS0_5ValueEET_S6_S6_RKT0_.exit.loopexit.split.loop.exit16, %_ZSt4findIPPN6hermes11InstructionEPNS0_5ValueEET_S6_S6_RKT0_.exit.loopexit.split.loop.exit18, %sw.bb.i.i.i, %sw.bb21.i.i.i, %sw.bb26.i.i.i, %sw.default.i.i.i
  %retval.0.i.i.i = phi ptr [ %add.ptr.i14, %sw.default.i.i.i ], [ %__first.addr.0.lcssa.i.i.i, %sw.bb.i.i.i ], [ %__first.addr.1.i.i.i, %sw.bb21.i.i.i ], [ %__first.addr.2.i.i.i, %sw.bb26.i.i.i ], [ %incdec.ptr.i.i.i.le, %_ZSt4findIPPN6hermes11InstructionEPNS0_5ValueEET_S6_S6_RKT0_.exit.loopexit.split.loop.exit ], [ %incdec.ptr4.i.i.i.le, %_ZSt4findIPPN6hermes11InstructionEPNS0_5ValueEET_S6_S6_RKT0_.exit.loopexit.split.loop.exit16 ], [ %incdec.ptr8.i.i.i.le, %_ZSt4findIPPN6hermes11InstructionEPNS0_5ValueEET_S6_S6_RKT0_.exit.loopexit.split.loop.exit18 ], [ %__first.addr.061.i.i.i, %for.body.i.i.i ]
  %cmp = icmp ne ptr %retval.0.i.i.i, %add.ptr.i14
  ret i1 %cmp
}